; Function Attrs: nounwind uwtable
define dso_local void @tuplesort_putindextuplevalues(ptr noundef %0, ptr noundef readonly captures(none) %1, ptr noundef readonly captures(none) %2, ptr noundef %3, ptr noundef %4) local_unnamed_addr #0 {
  %6 = alloca %struct.SortTuple, align 8
  call void @llvm.lifetime.start.p0(i64 24, ptr nonnull %6) #12
  %7 = getelementptr inbounds nuw i8, ptr %0, i64 104
  %8 = load ptr, ptr %7, align 8
  %9 = getelementptr inbounds nuw i8, ptr %1, i64 64
  %10 = load ptr, ptr %9, align 8
  %11 = getelementptr inbounds nuw i8, ptr %0, i64 64
  %12 = load ptr, ptr %11, align 8
  %13 = tail call ptr @index_form_tuple_context(ptr noundef %10, ptr noundef %3, ptr noundef %4, ptr noundef %12) #12
  store ptr %13, ptr %6, align 8
  tail call void @llvm.memcpy.p0.p0.i64(ptr noundef nonnull align 2 dereferenceable(6) %13, ptr noundef nonnull align 2 dereferenceable(6) %2, i64 6, i1 false)
  %14 = getelementptr inbounds nuw i8, ptr %8, i64 8
  %15 = load ptr, ptr %14, align 8
  %16 = getelementptr inbounds nuw i8, ptr %15, i64 64
  %17 = load ptr, ptr %16, align 8
  %18 = getelementptr inbounds nuw i8, ptr %6, i64 16
  store i8 0, ptr %18, align 8
  %19 = getelementptr i8, ptr %13, i64 6
  %.val.i = load i16, ptr %19, align 2
  %20 = icmp slt i16 %.val.i, 0
  br i1 %20, label %54, label %21

21:                                               ; preds = %5
  %22 = getelementptr inbounds nuw i8, ptr %17, i64 24
  %23 = load i32, ptr %22, align 4
  %24 = icmp sgt i32 %23, -1
  br i1 %24, label %25, label %52

25:                                               ; preds = %21
  %26 = getelementptr inbounds nuw i8, ptr %13, i64 8
  %27 = zext nneg i32 %23 to i64
  %28 = getelementptr inbounds nuw i8, ptr %26, i64 %27
  %29 = getelementptr inbounds nuw i8, ptr %17, i64 30
  %30 = load i8, ptr %29, align 2, !range !4, !noundef !5
  %31 = trunc nuw i8 %30 to i1
  %32 = getelementptr inbounds nuw i8, ptr %17, i64 28
  %33 = load i16, ptr %32, align 4
  br i1 %31, label %34, label %50

34:                                               ; preds = %25
  switch i16 %33, label %46 [
    i16 1, label %35
    i16 2, label %38
    i16 4, label %41
    i16 8, label %44
  ]

35:                                               ; preds = %34
  %36 = load i8, ptr %28, align 1
  %37 = sext i8 %36 to i64
  br label %index_getattr.exit

38:                                               ; preds = %34
  %39 = load i16, ptr %28, align 2
  %40 = sext i16 %39 to i64
  br label %index_getattr.exit

41:                                               ; preds = %34
  %42 = load i32, ptr %28, align 4
  %43 = sext i32 %42 to i64
  br label %index_getattr.exit

44:                                               ; preds = %34
  %45 = load i64, ptr %28, align 8
  br label %index_getattr.exit

46:                                               ; preds = %34
  %47 = sext i16 %33 to i32
  %48 = tail call zeroext i1 @errstart_cold(i32 noundef 21, ptr noundef null) #13
  tail call void @llvm.assume(i1 %48)
  %49 = tail call i32 (ptr, ...) @errmsg_internal(ptr noundef nonnull @.str.6, i32 noundef range(i32 -32768, 32768) %47) #12
  tail call void @errfinish(ptr noundef nonnull @.str.7, i32 noundef 70, ptr noundef nonnull @__func__.fetch_att) #12
  unreachable

50:                                               ; preds = %25
  %51 = ptrtoint ptr %28 to i64
  br label %index_getattr.exit

52:                                               ; preds = %21
  %53 = tail call i64 @nocache_index_getattr(ptr noundef nonnull %13, i32 noundef 1, ptr noundef nonnull %17) #12
  br label %index_getattr.exit

54:                                               ; preds = %5
  %55 = getelementptr inbounds nuw i8, ptr %13, i64 8
  %56 = load i8, ptr %55, align 1
  %57 = and i8 %56, 1
  %.not.i19.i = icmp eq i8 %57, 0
  br i1 %.not.i19.i, label %58, label %59

58:                                               ; preds = %54
  store i8 1, ptr %18, align 8
  br label %index_getattr.exit

59:                                               ; preds = %54
  %60 = tail call i64 @nocache_index_getattr(ptr noundef nonnull %13, i32 noundef 1, ptr noundef %17) #12
  br label %index_getattr.exit

index_getattr.exit:                               ; preds = %35, %38, %41, %44, %50, %52, %58, %59
  %61 = phi i1 [ false, %58 ], [ true, %59 ], [ true, %52 ], [ true, %44 ], [ true, %41 ], [ true, %38 ], [ true, %35 ], [ true, %50 ]
  %.1.i = phi i64 [ 0, %58 ], [ %60, %59 ], [ %53, %52 ], [ %45, %44 ], [ %43, %41 ], [ %40, %38 ], [ %37, %35 ], [ %51, %50 ]
  %62 = getelementptr inbounds nuw i8, ptr %6, i64 8
  store i64 %.1.i, ptr %62, align 8
  %63 = getelementptr inbounds nuw i8, ptr %0, i64 96
  %64 = load i32, ptr %63, align 8
  %65 = and i32 %64, 2
  %66 = icmp eq i32 %65, 0
  br i1 %66, label %67, label %72

67:                                               ; preds = %index_getattr.exit
  %68 = load i16, ptr %19, align 2
  %69 = and i16 %68, 8191
  %narrow = add nuw nsw i16 %69, 7
  %70 = and i16 %narrow, 16376
  %71 = zext nneg i16 %70 to i64
  br label %74

72:                                               ; preds = %index_getattr.exit
  %73 = tail call i64 @GetMemoryChunkSpace(ptr noundef nonnull %13) #12
  br label %74

74:                                               ; preds = %72, %67
  %.0 = phi i64 [ %71, %67 ], [ %73, %72 ]
  %75 = getelementptr inbounds nuw i8, ptr %0, i64 80
  %76 = load ptr, ptr %75, align 8
  %.not = icmp eq ptr %76, null
  br i1 %.not, label %80, label %77

77:                                               ; preds = %74
  %78 = getelementptr inbounds nuw i8, ptr %76, i64 40
  %79 = load ptr, ptr %78, align 8
  %.not17 = icmp ne ptr %79, null
  %spec.select = and i1 %.not17, %61
  br label %80

80:                                               ; preds = %77, %74
  %81 = phi i1 [ false, %74 ], [ %spec.select, %77 ]
  call void @tuplesort_puttuple_common(ptr noundef nonnull %0, ptr noundef nonnull %6, i1 noundef zeroext %81, i64 noundef %.0) #12
  call void @llvm.lifetime.end.p0(i64 24, ptr nonnull %6) #12
  ret void
}